Certificate:
    Data:
        Version: 3 (0x2)
        Serial Number: 2 (0x2)
        Signature Algorithm: sha1WithRSAEncryption
        Issuer: DC=org, DC=teamtqcd, O=Team TQCD Inc, OU=Team TQCD Root CA, CN=Team TQCD Root CA
        Validity
            Not Before: Dec  1 21:02:03 2023 GMT
            Not After : Nov 30 21:02:03 2033 GMT
        Subject: DC=org, DC=teamtqcd, O=Team TQCD Inc, OU=Team TQCD Root CA, CN=Team TQCD Root CA
        Subject Public Key Info:
            Public Key Algorithm: rsaEncryption
                Public-Key: (2048 bit)
                Modulus:
                    00:bb:43:5b:8a:9b:4b:a1:55:8c:ef:2f:bc:ed:03:
                    96:7d:b9:33:f0:83:94:0d:2b:4b:00:f0:65:83:f6:
                    08:f8:74:0f:d5:61:14:58:f3:da:2d:d8:38:a6:a4:
                    eb:81:f6:9c:93:94:71:10:83:b8:f9:13:79:f5:cc:
                    30:ec:2b:32:d6:a2:6c:ba:b0:19:62:03:74:94:b1:
                    ae:3a:68:be:50:41:68:c4:23:4f:f0:53:b3:76:f5:
                    af:f1:74:2b:7c:72:24:ff:27:74:ba:4e:20:9f:c7:
                    9d:55:75:b6:78:6c:1d:df:f2:17:56:43:e9:df:8c:
                    88:1d:3c:ae:f6:33:67:5a:4d:9d:c5:cc:69:e6:c5:
                    a0:aa:8a:72:e9:c0:38:68:e2:5b:a9:1d:ba:b6:a8:
                    c9:b4:1b:a5:b3:db:84:d1:ab:ea:36:5a:67:d5:93:
                    df:0c:80:cc:d1:ca:cc:05:c2:d2:18:31:74:7e:07:
                    c4:10:38:f3:13:66:2b:0f:5f:71:9c:e9:f9:5c:b2:
                    37:c7:70:c5:02:4a:d7:9f:45:51:be:39:4a:e8:10:
                    9d:b1:95:d2:d3:2a:ef:ee:07:87:a1:d4:95:59:a4:
                    34:02:22:13:0c:fe:fb:d8:37:a0:66:d8:12:f6:d0:
                    a5:dd:1f:23:a7:87:51:cb:8c:62:1b:b5:8f:88:5f:
                    47:4b
                Exponent: 65537 (0x10001)
        X509v3 extensions:
            X509v3 Key Usage: critical
                Certificate Sign, CRL Sign
            X509v3 Basic Constraints: critical
                CA:TRUE, pathlen:0
            X509v3 Subject Key Identifier: 
                7E:AB:BB:0E:D6:20:16:9E:92:E9:A1:9F:AE:02:CE:8F:D4:9A:35:C3
            X509v3 Authority Key Identifier: 
                F9:06:E4:CA:F5:39:CB:77:47:E3:C1:48:26:E6:87:50:1B:7A:59:69
    Signature Algorithm: sha1WithRSAEncryption
    Signature Value:
        4c:ad:d9:3f:6e:86:1a:59:64:0d:c4:e6:af:77:d9:ef:b0:b8:
        16:05:5a:a8:37:65:09:d4:b4:eb:73:e3:b6:10:ae:f1:1a:90:
        4a:70:cd:67:9f:a1:66:d9:94:fa:7c:62:82:a9:dc:ae:5b:03:
        62:9f:99:77:6e:8c:c6:03:c8:78:83:45:a9:3c:13:12:fd:17:
        b1:e2:cf:2a:9d:e0:68:76:39:47:8b:20:15:4b:cd:d9:cb:ca:
        2d:8c:b5:d6:12:f7:f4:e7:3f:8f:a6:80:9e:17:c0:f4:aa:8d:
        29:d5:fa:0e:17:9e:41:79:3a:9e:1b:67:44:ef:f5:61:37:9c:
        d1:4e:a4:db:40:c7:6e:8f:a0:f3:63:70:06:d6:e1:09:56:ca:
        2f:7f:15:aa:3c:22:66:16:a3:82:92:30:bd:33:51:05:17:1c:
        8e:7c:ad:28:4a:68:c0:46:4f:00:cc:85:4d:98:e3:ba:4a:52:
        19:40:f6:89:96:90:0a:66:16:b0:f8:9c:85:da:6e:ac:51:2d:
        c3:5c:07:9b:60:7b:b6:00:ff:f2:94:01:22:a6:a5:ec:8a:a8:
        c8:35:3c:13:f5:2f:d1:f7:8a:28:d2:88:76:43:92:bb:6c:51:
        d4:0c:c7:4d:0c:bd:ea:da:13:70:c9:6b:93:ee:56:2e:a3:5f:
        e6:30:47:c3
-----BEGIN CERTIFICATE-----
MIID3zCCAsegAwIBAgIBAjANBgkqhkiG9w0BAQUFADB/MRMwEQYKCZImiZPyLGQB
GRYDb3JnMRgwFgYKCZImiZPyLGQBGRYIdGVhbXRxY2QxFjAUBgNVBAoMDVRlYW0g
VFFDRCBJbmMxGjAYBgNVBAsMEVRlYW0gVFFDRCBSb290IENBMRowGAYDVQQDDBFU
ZWFtIFRRQ0QgUm9vdCBDQTAeFw0yMzEyMDEyMTAyMDNaFw0zMzExMzAyMTAyMDNa
MH8xEzARBgoJkiaJk/IsZAEZFgNvcmcxGDAWBgoJkiaJk/IsZAEZFgh0ZWFtdHFj
ZDEWMBQGA1UECgwNVGVhbSBUUUNEIEluYzEaMBgGA1UECwwRVGVhbSBUUUNEIFJv
b3QgQ0ExGjAYBgNVBAMMEVRlYW0gVFFDRCBSb290IENBMIIBIjANBgkqhkiG9w0B
AQEFAAOCAQ8AMIIBCgKCAQEAu0NbiptLoVWM7y+87QOWfbkz8IOUDStLAPBlg/YI
+HQP1WEUWPPaLdg4pqTrgfack5RxEIO4+RN59cww7Csy1qJsurAZYgN0lLGuOmi+
UEFoxCNP8FOzdvWv8XQrfHIk/yd0uk4gn8edVXW2eGwd3/IXVkPp34yIHTyu9jNn
Wk2dxcxp5sWgqopy6cA4aOJbqR26tqjJtBuls9uE0avqNlpn1ZPfDIDM0crMBcLS
GDF0fgfEEDjzE2YrD19xnOn5XLI3x3DFAkrXn0VRvjlK6BCdsZXS0yrv7geHodSV
WaQ0AiITDP772DegZtgS9tCl3R8jp4dRy4xiG7WPiF9HSwIDAQABo2YwZDAOBgNV
HQ8BAf8EBAMCAQYwEgYDVR0TAQH/BAgwBgEB/wIBADAdBgNVHQ4EFgQUfqu7DtYg
Fp6S6aGfrgLOj9SaNcMwHwYDVR0jBBgwFoAU+QbkyvU5y3dH48FIJuaHUBt6WWkw
DQYJKoZIhvcNAQEFBQADggEBAEyt2T9uhhpZZA3E5q932e+wuBYFWqg3ZQnUtOtz
47YQrvEakEpwzWefoWbZlPp8YoKp3K5bA2KfmXdujMYDyHiDRak8ExL9F7Hizyqd
4Gh2OUeLIBVLzdnLyi2MtdYS9/TnP4+mgJ4XwPSqjSnV+g4XnkF5Op4bZ0Tv9WE3
nNFOpNtAx26PoPNjcAbW4QlWyi9/Fao8ImYWo4KSML0zUQUXHI58rShKaMBGTwDM
hU2Y47pKUhlA9omWkApmFrD4nIXabqxRLcNcB5tge7YA//KUASKmpeyKqMg1PBP1
L9H3iijSiHZDkrtsUdQMx00MveraE3DJa5PuVi6jX+YwR8M=
-----END CERTIFICATE-----
